target datalayout = "e-m:e-p270:32:32-p271:32:32-p272:64:64-i64:64-i128:128-f80:128-n8:16:32:64-S128"
target triple = "x86_64-pc-linux-gnu"

@.str.9 = private unnamed_addr constant [37 x i8] c"PMIX ERROR: %s in file %s at line %d\00", align 1
@.str.10 = private unnamed_addr constant [14 x i8] c"preg_native.c\00", align 1
@.str.14 = private unnamed_addr constant [4 x i8] c"%lu\00", align 1

; Function Attrs: nounwind uwtable
define internal i32 @regex_parse_value_range(ptr noundef %0, ptr noundef %1, i32 noundef %2, ptr noundef %3, ptr noundef %4) #0 {
  %6 = alloca i32, align 4
  %7 = alloca ptr, align 8
  %8 = alloca ptr, align 8
  %9 = alloca i32, align 4
  %10 = alloca ptr, align 8
  %11 = alloca ptr, align 8
  %12 = alloca ptr, align 8
  %13 = alloca [132 x i8], align 16
  %14 = alloca i64, align 8
  %15 = alloca i64, align 8
  %16 = alloca i64, align 8
  %17 = alloca i64, align 8
  %18 = alloca i64, align 8
  %19 = alloca i64, align 8
  %20 = alloca i8, align 1
  %21 = alloca i32, align 4
  %22 = alloca i32, align 4
  store ptr %0, ptr %7, align 8, !tbaa !3
  store ptr %1, ptr %8, align 8, !tbaa !3
  store i32 %2, ptr %9, align 4, !tbaa !10
  store ptr %3, ptr %10, align 8, !tbaa !3
  store ptr %4, ptr %11, align 8, !tbaa !59
  call void @llvm.lifetime.start.p0(i64 8, ptr %12) #12
  call void @llvm.lifetime.start.p0(i64 132, ptr %13) #12
  call void @llvm.lifetime.start.p0(i64 8, ptr %14) #12
  call void @llvm.lifetime.start.p0(i64 8, ptr %15) #12
  call void @llvm.lifetime.start.p0(i64 8, ptr %16) #12
  call void @llvm.lifetime.start.p0(i64 8, ptr %17) #12
  call void @llvm.lifetime.start.p0(i64 8, ptr %18) #12
  call void @llvm.lifetime.start.p0(i64 8, ptr %19) #12
  call void @llvm.lifetime.start.p0(i64 1, ptr %20) #12
  call void @llvm.lifetime.start.p0(i64 4, ptr %21) #12
  %23 = load ptr, ptr %7, align 8, !tbaa !3
  %24 = icmp eq ptr null, %23
  br i1 %24, label %28, label %25

25:                                               ; preds = %5
  %26 = load ptr, ptr %8, align 8, !tbaa !3
  %27 = icmp eq ptr null, %26
  br i1 %27, label %28, label %29

28:                                               ; preds = %25, %5
  store i32 -1, ptr %6, align 4
  store i32 1, ptr %22, align 4
  br label %250

29:                                               ; preds = %25
  %30 = load ptr, ptr %8, align 8, !tbaa !3
  %31 = call i64 @strlen(ptr noundef %30) #13
  store i64 %31, ptr %19, align 8, !tbaa !63
  %32 = load ptr, ptr %7, align 8, !tbaa !3
  %33 = call i64 @strlen(ptr noundef %32) #13
  store i64 %33, ptr %18, align 8, !tbaa !63
  store i64 0, ptr %17, align 8, !tbaa !63
  store i64 0, ptr %16, align 8, !tbaa !63
  store i8 0, ptr %20, align 1, !tbaa !21
  store i64 0, ptr %14, align 8, !tbaa !63
  br label %34

34:                                               ; preds = %62, %29
  %35 = load i64, ptr %14, align 8, !tbaa !63
  %36 = load i64, ptr %19, align 8, !tbaa !63
  %37 = icmp ult i64 %35, %36
  br i1 %37, label %38, label %65

38:                                               ; preds = %34
  %39 = call ptr @__ctype_b_loc() #14
  %40 = load ptr, ptr %39, align 8, !tbaa !23
  %41 = load ptr, ptr %8, align 8, !tbaa !3
  %42 = load i64, ptr %14, align 8, !tbaa !63
  %43 = getelementptr inbounds nuw i8, ptr %41, i64 %42
  %44 = load i8, ptr %43, align 1, !tbaa !20
  %45 = sext i8 %44 to i32
  %46 = sext i32 %45 to i64
  %47 = getelementptr inbounds i16, ptr %40, i64 %46
  %48 = load i16, ptr %47, align 2, !tbaa !25
  %49 = zext i16 %48 to i32
  %50 = and i32 %49, 2048
  %51 = icmp ne i32 %50, 0
  br i1 %51, label %52, label %61

52:                                               ; preds = %38
  %53 = load i8, ptr %20, align 1, !tbaa !21, !range !29, !noundef !30
  %54 = trunc i8 %53 to i1
  br i1 %54, label %60, label %55

55:                                               ; preds = %52
  %56 = load ptr, ptr %8, align 8, !tbaa !3
  %57 = load i64, ptr %14, align 8, !tbaa !63
  %58 = getelementptr inbounds nuw i8, ptr %56, i64 %57
  %59 = call i64 @strtol(ptr noundef %58, ptr noundef null, i32 noundef 10) #12
  store i64 %59, ptr %16, align 8, !tbaa !63
  store i8 1, ptr %20, align 1, !tbaa !21
  br label %65

60:                                               ; preds = %52
  br label %61

61:                                               ; preds = %60, %38
  br label %62

62:                                               ; preds = %61
  %63 = load i64, ptr %14, align 8, !tbaa !63
  %64 = add i64 %63, 1
  store i64 %64, ptr %14, align 8, !tbaa !63
  br label %34, !llvm.loop !102

65:                                               ; preds = %55, %34
  %66 = load i8, ptr %20, align 1, !tbaa !21, !range !29, !noundef !30
  %67 = trunc i8 %66 to i1
  br i1 %67, label %73, label %68

68:                                               ; preds = %65
  br label %69

69:                                               ; preds = %68
  %70 = call ptr @PMIx_Error_string(i32 noundef -46)
  call void (i32, ptr, ...) @pmix_output(i32 noundef 0, ptr noundef @.str.9, ptr noundef %70, ptr noundef @.str.10, i32 noundef 803)
  br label %71

71:                                               ; preds = %69
  br label %72

72:                                               ; preds = %71
  store i32 -46, ptr %6, align 4
  store i32 1, ptr %22, align 4
  br label %250

73:                                               ; preds = %65
  store i8 0, ptr %20, align 1, !tbaa !21
  br label %74

74:                                               ; preds = %94, %73
  %75 = load i64, ptr %14, align 8, !tbaa !63
  %76 = load i64, ptr %19, align 8, !tbaa !63
  %77 = icmp ult i64 %75, %76
  br i1 %77, label %78, label %97

78:                                               ; preds = %74
  %79 = call ptr @__ctype_b_loc() #14
  %80 = load ptr, ptr %79, align 8, !tbaa !23
  %81 = load ptr, ptr %8, align 8, !tbaa !3
  %82 = load i64, ptr %14, align 8, !tbaa !63
  %83 = getelementptr inbounds nuw i8, ptr %81, i64 %82
  %84 = load i8, ptr %83, align 1, !tbaa !20
  %85 = sext i8 %84 to i32
  %86 = sext i32 %85 to i64
  %87 = getelementptr inbounds i16, ptr %80, i64 %86
  %88 = load i16, ptr %87, align 2, !tbaa !25
  %89 = zext i16 %88 to i32
  %90 = and i32 %89, 2048
  %91 = icmp ne i32 %90, 0
  br i1 %91, label %93, label %92

92:                                               ; preds = %78
  br label %97

93:                                               ; preds = %78
  br label %94

94:                                               ; preds = %93
  %95 = load i64, ptr %14, align 8, !tbaa !63
  %96 = add i64 %95, 1
  store i64 %96, ptr %14, align 8, !tbaa !63
  br label %74, !llvm.loop !103

97:                                               ; preds = %92, %74
  %98 = load i64, ptr %14, align 8, !tbaa !63
  %99 = load i64, ptr %19, align 8, !tbaa !63
  %100 = icmp uge i64 %98, %99
  br i1 %100, label %101, label %103

101:                                              ; preds = %97
  %102 = load i64, ptr %16, align 8, !tbaa !63
  store i64 %102, ptr %17, align 8, !tbaa !63
  store i8 1, ptr %20, align 1, !tbaa !21
  br label %132

103:                                              ; preds = %97
  br label %104

104:                                              ; preds = %128, %103
  %105 = load i64, ptr %14, align 8, !tbaa !63
  %106 = load i64, ptr %19, align 8, !tbaa !63
  %107 = icmp ult i64 %105, %106
  br i1 %107, label %108, label %131

108:                                              ; preds = %104
  %109 = call ptr @__ctype_b_loc() #14
  %110 = load ptr, ptr %109, align 8, !tbaa !23
  %111 = load ptr, ptr %8, align 8, !tbaa !3
  %112 = load i64, ptr %14, align 8, !tbaa !63
  %113 = getelementptr inbounds nuw i8, ptr %111, i64 %112
  %114 = load i8, ptr %113, align 1, !tbaa !20
  %115 = sext i8 %114 to i32
  %116 = sext i32 %115 to i64
  %117 = getelementptr inbounds i16, ptr %110, i64 %116
  %118 = load i16, ptr %117, align 2, !tbaa !25
  %119 = zext i16 %118 to i32
  %120 = and i32 %119, 2048
  %121 = icmp ne i32 %120, 0
  br i1 %121, label %122, label %127

122:                                              ; preds = %108
  %123 = load ptr, ptr %8, align 8, !tbaa !3
  %124 = load i64, ptr %14, align 8, !tbaa !63
  %125 = getelementptr inbounds nuw i8, ptr %123, i64 %124
  %126 = call i64 @strtol(ptr noundef %125, ptr noundef null, i32 noundef 10) #12
  store i64 %126, ptr %17, align 8, !tbaa !63
  store i8 1, ptr %20, align 1, !tbaa !21
  br label %131

127:                                              ; preds = %108
  br label %128

128:                                              ; preds = %127
  %129 = load i64, ptr %14, align 8, !tbaa !63
  %130 = add i64 %129, 1
  store i64 %130, ptr %14, align 8, !tbaa !63
  br label %104, !llvm.loop !104

131:                                              ; preds = %122, %104
  br label %132

132:                                              ; preds = %131, %101
  %133 = load i8, ptr %20, align 1, !tbaa !21, !range !29, !noundef !30
  %134 = trunc i8 %133 to i1
  br i1 %134, label %140, label %135

135:                                              ; preds = %132
  br label %136

136:                                              ; preds = %135
  %137 = call ptr @PMIx_Error_string(i32 noundef -46)
  call void (i32, ptr, ...) @pmix_output(i32 noundef 0, ptr noundef @.str.9, ptr noundef %137, ptr noundef @.str.10, i32 noundef 833)
  br label %138

138:                                              ; preds = %136
  br label %139

139:                                              ; preds = %138
  store i32 -46, ptr %6, align 4
  store i32 1, ptr %22, align 4
  br label %250

140:                                              ; preds = %132
  %141 = load i64, ptr %18, align 8, !tbaa !63
  %142 = load i32, ptr %9, align 4, !tbaa !10
  %143 = sext i32 %142 to i64
  %144 = add i64 %141, %143
  %145 = add i64 %144, 32
  store i64 %145, ptr %19, align 8, !tbaa !63
  %146 = load ptr, ptr %10, align 8, !tbaa !3
  %147 = icmp ne ptr null, %146
  br i1 %147, label %148, label %153

148:                                              ; preds = %140
  %149 = load ptr, ptr %10, align 8, !tbaa !3
  %150 = call i64 @strlen(ptr noundef %149) #13
  %151 = load i64, ptr %19, align 8, !tbaa !63
  %152 = add i64 %151, %150
  store i64 %152, ptr %19, align 8, !tbaa !63
  br label %153

153:                                              ; preds = %148, %140
  %154 = load i64, ptr %19, align 8, !tbaa !63
  %155 = call noalias ptr @malloc(i64 noundef %154) #16
  store ptr %155, ptr %12, align 8, !tbaa !3
  %156 = load ptr, ptr %12, align 8, !tbaa !3
  %157 = icmp eq ptr null, %156
  br i1 %157, label %158, label %163

158:                                              ; preds = %153
  br label %159

159:                                              ; preds = %158
  %160 = call ptr @PMIx_Error_string(i32 noundef -29)
  call void (i32, ptr, ...) @pmix_output(i32 noundef 0, ptr noundef @.str.9, ptr noundef %160, ptr noundef @.str.10, i32 noundef 845)
  br label %161

161:                                              ; preds = %159
  br label %162

162:                                              ; preds = %161
  store i32 -29, ptr %6, align 4
  store i32 1, ptr %22, align 4
  br label %250

163:                                              ; preds = %153
  %164 = load i64, ptr %16, align 8, !tbaa !63
  store i64 %164, ptr %14, align 8, !tbaa !63
  br label %165

165:                                              ; preds = %245, %163
  %166 = load i64, ptr %14, align 8, !tbaa !63
  %167 = load i64, ptr %17, align 8, !tbaa !63
  %168 = icmp ule i64 %166, %167
  br i1 %168, label %169, label %248

169:                                              ; preds = %165
  %170 = load ptr, ptr %12, align 8, !tbaa !3
  %171 = load i64, ptr %19, align 8, !tbaa !63
  call void @llvm.memset.p0.i64(ptr align 1 %170, i8 0, i64 %171, i1 false)
  %172 = load ptr, ptr %12, align 8, !tbaa !3
  %173 = load ptr, ptr %7, align 8, !tbaa !3
  %174 = call ptr @strcpy(ptr noundef %172, ptr noundef %173) #12
  store i64 0, ptr %15, align 8, !tbaa !63
  br label %175

175:                                              ; preds = %186, %169
  %176 = load i64, ptr %15, align 8, !tbaa !63
  %177 = load i32, ptr %9, align 4, !tbaa !10
  %178 = sext i32 %177 to i64
  %179 = icmp ult i64 %176, %178
  br i1 %179, label %180, label %189

180:                                              ; preds = %175
  %181 = load ptr, ptr %12, align 8, !tbaa !3
  %182 = load i64, ptr %15, align 8, !tbaa !63
  %183 = load i64, ptr %18, align 8, !tbaa !63
  %184 = add i64 %182, %183
  %185 = getelementptr inbounds nuw i8, ptr %181, i64 %184
  store i8 48, ptr %185, align 1, !tbaa !20
  br label %186

186:                                              ; preds = %180
  %187 = load i64, ptr %15, align 8, !tbaa !63
  %188 = add i64 %187, 1
  store i64 %188, ptr %15, align 8, !tbaa !63
  br label %175, !llvm.loop !105

189:                                              ; preds = %175
  %190 = getelementptr inbounds [132 x i8], ptr %13, i64 0, i64 0
  call void @llvm.memset.p0.i64(ptr align 16 %190, i8 0, i64 132, i1 false)
  %191 = getelementptr inbounds [132 x i8], ptr %13, i64 0, i64 0
  %192 = load i64, ptr %14, align 8, !tbaa !63
  %193 = call i32 (ptr, i64, ptr, ...) @pmix_snprintf(ptr noundef %191, i64 noundef 132, ptr noundef @.str.14, i64 noundef %192)
  store i64 0, ptr %15, align 8, !tbaa !63
  br label %194

194:                                              ; preds = %216, %189
  %195 = load i64, ptr %15, align 8, !tbaa !63
  %196 = getelementptr inbounds [132 x i8], ptr %13, i64 0, i64 0
  %197 = call i64 @strlen(ptr noundef %196) #13
  %198 = icmp ult i64 %195, %197
  br i1 %198, label %199, label %219

199:                                              ; preds = %194
  %200 = getelementptr inbounds [132 x i8], ptr %13, i64 0, i64 0
  %201 = call i64 @strlen(ptr noundef %200) #13
  %202 = load i64, ptr %15, align 8, !tbaa !63
  %203 = sub i64 %201, %202
  %204 = sub i64 %203, 1
  %205 = getelementptr inbounds nuw [132 x i8], ptr %13, i64 0, i64 %204
  %206 = load i8, ptr %205, align 1, !tbaa !20
  %207 = load ptr, ptr %12, align 8, !tbaa !3
  %208 = load i64, ptr %18, align 8, !tbaa !63
  %209 = load i32, ptr %9, align 4, !tbaa !10
  %210 = sext i32 %209 to i64
  %211 = add i64 %208, %210
  %212 = load i64, ptr %15, align 8, !tbaa !63
  %213 = sub i64 %211, %212
  %214 = sub i64 %213, 1
  %215 = getelementptr inbounds nuw i8, ptr %207, i64 %214
  store i8 %206, ptr %215, align 1, !tbaa !20
  br label %216

216:                                              ; preds = %199
  %217 = load i64, ptr %15, align 8, !tbaa !63
  %218 = add i64 %217, 1
  store i64 %218, ptr %15, align 8, !tbaa !63
  br label %194, !llvm.loop !106

219:                                              ; preds = %194
  %220 = load ptr, ptr %10, align 8, !tbaa !3
  %221 = icmp ne ptr null, %220
  br i1 %221, label %222, label %226

222:                                              ; preds = %219
  %223 = load ptr, ptr %12, align 8, !tbaa !3
  %224 = load ptr, ptr %10, align 8, !tbaa !3
  %225 = call ptr @strcat(ptr noundef %223, ptr noundef %224) #12
  br label %226

226:                                              ; preds = %222, %219
  %227 = load ptr, ptr %11, align 8, !tbaa !59
  %228 = load ptr, ptr %12, align 8, !tbaa !3
  %229 = call i32 @PMIx_Argv_append_nosize(ptr noundef %227, ptr noundef %228)
  store i32 %229, ptr %21, align 4, !tbaa !10
  %230 = load i32, ptr %21, align 4, !tbaa !10
  %231 = icmp ne i32 0, %230
  br i1 %231, label %232, label %244

232:                                              ; preds = %226
  br label %233

233:                                              ; preds = %232
  %234 = load i32, ptr %21, align 4, !tbaa !10
  %235 = icmp ne i32 -2, %234
  br i1 %235, label %236, label %239

236:                                              ; preds = %233
  %237 = load i32, ptr %21, align 4, !tbaa !10
  %238 = call ptr @PMIx_Error_string(i32 noundef %237)
  call void (i32, ptr, ...) @pmix_output(i32 noundef 0, ptr noundef @.str.9, ptr noundef %238, ptr noundef @.str.10, i32 noundef 866)
  br label %239

239:                                              ; preds = %236, %233
  br label %240

240:                                              ; preds = %239
  br label %241

241:                                              ; preds = %240
  %242 = load ptr, ptr %12, align 8, !tbaa !3
  call void @free(ptr noundef %242) #12
  %243 = load i32, ptr %21, align 4, !tbaa !10
  store i32 %243, ptr %6, align 4
  store i32 1, ptr %22, align 4
  br label %250

244:                                              ; preds = %226
  br label %245

245:                                              ; preds = %244
  %246 = load i64, ptr %14, align 8, !tbaa !63
  %247 = add i64 %246, 1
  store i64 %247, ptr %14, align 8, !tbaa !63
  br label %165, !llvm.loop !107

248:                                              ; preds = %165
  %249 = load ptr, ptr %12, align 8, !tbaa !3
  call void @free(ptr noundef %249) #12
  store i32 0, ptr %6, align 4
  store i32 1, ptr %22, align 4
  br label %250

250:                                              ; preds = %248, %241, %162, %139, %72, %28
  call void @llvm.lifetime.end.p0(i64 4, ptr %21) #12
  call void @llvm.lifetime.end.p0(i64 1, ptr %20) #12
  call void @llvm.lifetime.end.p0(i64 8, ptr %19) #12
  call void @llvm.lifetime.end.p0(i64 8, ptr %18) #12
  call void @llvm.lifetime.end.p0(i64 8, ptr %17) #12
  call void @llvm.lifetime.end.p0(i64 8, ptr %16) #12
  call void @llvm.lifetime.end.p0(i64 8, ptr %15) #12
  call void @llvm.lifetime.end.p0(i64 8, ptr %14) #12
  call void @llvm.lifetime.end.p0(i64 132, ptr %13) #12
  call void @llvm.lifetime.end.p0(i64 8, ptr %12) #12
  %251 = load i32, ptr %6, align 4
  ret i32 %251
}