; Function Attrs: nounwind uwtable
define internal fastcc noundef i32 @regex_parse_value_range(ptr noundef nonnull readonly captures(none) %0, ptr noundef nonnull readonly captures(none) %1, i32 noundef %2, ptr noundef readonly captures(address_is_null) %3, ptr noundef %4) unnamed_addr #0 {
  %6 = alloca [132 x i8], align 16
  call void @llvm.lifetime.start.p0(i64 132, ptr nonnull %6) #18
  %7 = tail call i64 @strlen(ptr noundef nonnull dereferenceable(1) %1) #19
  %8 = tail call i64 @strlen(ptr noundef nonnull dereferenceable(1) %0) #19
  %.not123 = icmp eq i64 %7, 0
  br i1 %.not123, label %._crit_edge, label %.lr.ph

.lr.ph:                                           ; preds = %5
  %9 = tail call ptr @__ctype_b_loc() #20
  %10 = load ptr, ptr %9, align 8, !tbaa !25
  br label %11

11:                                               ; preds = %.lr.ph, %18
  %.072104 = phi i64 [ 0, %.lr.ph ], [ %19, %18 ]
  %12 = getelementptr inbounds nuw i8, ptr %1, i64 %.072104
  %13 = load i8, ptr %12, align 1, !tbaa !24
  %14 = sext i8 %13 to i64
  %15 = getelementptr inbounds i16, ptr %10, i64 %14
  %16 = load i16, ptr %15, align 2, !tbaa !27
  %17 = and i16 %16, 2048
  %.not = icmp eq i16 %17, 0
  br i1 %.not, label %18, label %20

18:                                               ; preds = %11
  %19 = add nuw i64 %.072104, 1
  %exitcond.not = icmp eq i64 %19, %7
  br i1 %exitcond.not, label %._crit_edge, label %11, !llvm.loop !82

20:                                               ; preds = %11
  %21 = getelementptr inbounds nuw i8, ptr %1, i64 %.072104
  %22 = tail call i64 @strtol(ptr noundef nonnull captures(none) %21, ptr noundef null, i32 noundef 10) #18
  %23 = icmp ult i64 %.072104, %7
  br i1 %23, label %.lr.ph107, label %.thread93

.lr.ph107:                                        ; preds = %20
  %24 = load ptr, ptr %9, align 8, !tbaa !25
  br label %26

._crit_edge:                                      ; preds = %18, %5
  %25 = tail call ptr @PMIx_Error_string(i32 noundef -46) #18
  tail call void (i32, ptr, ...) @pmix_output(i32 noundef 0, ptr noundef nonnull @.str.9, ptr noundef %25, ptr noundef nonnull @.str.10, i32 noundef 803) #18
  br label %72

26:                                               ; preds = %.lr.ph107, %34
  %.173105 = phi i64 [ %.072104, %.lr.ph107 ], [ %35, %34 ]
  %27 = getelementptr inbounds nuw i8, ptr %1, i64 %.173105
  %28 = load i8, ptr %27, align 1, !tbaa !24
  %29 = sext i8 %28 to i64
  %30 = getelementptr inbounds i16, ptr %24, i64 %29
  %31 = load i16, ptr %30, align 2, !tbaa !27
  %32 = and i16 %31, 2048
  %.not85 = icmp eq i16 %32, 0
  br i1 %.not85, label %.preheader98, label %34

.preheader98:                                     ; preds = %26
  %33 = icmp ult i64 %.173105, %7
  br i1 %33, label %.lr.ph109, label %._crit_edge110

34:                                               ; preds = %26
  %35 = add i64 %.173105, 1
  %exitcond131.not = icmp eq i64 %35, %7
  br i1 %exitcond131.not, label %.thread93, label %26, !llvm.loop !83

.lr.ph109:                                        ; preds = %.preheader98, %45
  %.2108 = phi i64 [ %46, %45 ], [ %.173105, %.preheader98 ]
  %36 = getelementptr inbounds nuw i8, ptr %1, i64 %.2108
  %37 = load i8, ptr %36, align 1, !tbaa !24
  %38 = sext i8 %37 to i64
  %39 = getelementptr inbounds i16, ptr %24, i64 %38
  %40 = load i16, ptr %39, align 2, !tbaa !27
  %41 = and i16 %40, 2048
  %.not87 = icmp eq i16 %41, 0
  br i1 %.not87, label %45, label %42

42:                                               ; preds = %.lr.ph109
  %43 = getelementptr inbounds nuw i8, ptr %1, i64 %.2108
  %44 = tail call i64 @strtol(ptr noundef nonnull captures(none) %43, ptr noundef null, i32 noundef 10) #18
  br label %.thread93

45:                                               ; preds = %.lr.ph109
  %46 = add i64 %.2108, 1
  %exitcond132.not = icmp eq i64 %46, %7
  br i1 %exitcond132.not, label %._crit_edge110, label %.lr.ph109, !llvm.loop !84

._crit_edge110:                                   ; preds = %45, %.preheader98
  %47 = tail call ptr @PMIx_Error_string(i32 noundef -46) #18
  tail call void (i32, ptr, ...) @pmix_output(i32 noundef 0, ptr noundef nonnull @.str.9, ptr noundef %47, ptr noundef nonnull @.str.10, i32 noundef 833) #18
  br label %72

.thread93:                                        ; preds = %34, %20, %42
  %.074.ph = phi i64 [ %44, %42 ], [ %22, %20 ], [ %22, %34 ]
  %48 = sext i32 %2 to i64
  %49 = add i64 %8, %48
  %50 = add i64 %49, 32
  %.not88 = icmp eq ptr %3, null
  br i1 %.not88, label %54, label %51

51:                                               ; preds = %.thread93
  %52 = tail call i64 @strlen(ptr noundef nonnull dereferenceable(1) %3) #19
  %53 = add i64 %52, %50
  br label %54

54:                                               ; preds = %51, %.thread93
  %.071 = phi i64 [ %53, %51 ], [ %50, %.thread93 ]
  %55 = tail call noalias ptr @malloc(i64 noundef %.071) #21
  %56 = icmp eq ptr %55, null
  br i1 %56, label %57, label %.preheader

.preheader:                                       ; preds = %54
  %.not89119 = icmp ugt i64 %22, %.074.ph
  br i1 %.not89119, label %._crit_edge122, label %.lr.ph121

.lr.ph121:                                        ; preds = %.preheader
  %invariant.gep = getelementptr i8, ptr %55, i64 %8
  %.not124 = icmp eq i32 %2, 0
  %scevgep = getelementptr i8, ptr %55, i64 %49
  br label %59

57:                                               ; preds = %54
  %58 = tail call ptr @PMIx_Error_string(i32 noundef -29) #18
  tail call void (i32, ptr, ...) @pmix_output(i32 noundef 0, ptr noundef nonnull @.str.9, ptr noundef %58, ptr noundef nonnull @.str.10, i32 noundef 845) #18
  br label %72

59:                                               ; preds = %.lr.ph121, %70
  %.3120 = phi i64 [ %22, %.lr.ph121 ], [ %71, %70 ]
  call void @llvm.memset.p0.i64(ptr nonnull align 1 %55, i8 0, i64 %.071, i1 false)
  %60 = call ptr @strcpy(ptr noundef nonnull dereferenceable(1) %55, ptr noundef nonnull dereferenceable(1) %0) #18
  br i1 %.not124, label %._crit_edge114, label %.lr.ph113.preheader

.lr.ph113.preheader:                              ; preds = %59
  call void @llvm.memset.p0.i64(ptr align 1 %invariant.gep, i8 48, i64 %48, i1 false), !tbaa !24
  br label %._crit_edge114

._crit_edge114:                                   ; preds = %.lr.ph113.preheader, %59
  call void @llvm.memset.p0.i64(ptr noundef nonnull align 16 dereferenceable(132) %6, i8 0, i64 132, i1 false)
  %61 = call i32 (ptr, i64, ptr, ...) @pmix_snprintf(ptr noundef nonnull %6, i64 noundef 132, ptr noundef nonnull @.str.14, i64 noundef %.3120) #18
  %62 = call i64 @strlen(ptr noundef nonnull dereferenceable(1) %6) #19
  %.not125 = icmp eq i64 %62, 0
  br i1 %.not125, label %._crit_edge118, label %.lr.ph117.preheader

.lr.ph117.preheader:                              ; preds = %._crit_edge114
  %63 = sub i64 0, %62
  %scevgep133 = getelementptr i8, ptr %scevgep, i64 %63
  call void @llvm.memcpy.p0.p0.i64(ptr align 1 %scevgep133, ptr nonnull align 16 %6, i64 %62, i1 false), !tbaa !24
  br label %._crit_edge118

._crit_edge118:                                   ; preds = %.lr.ph117.preheader, %._crit_edge114
  br i1 %.not88, label %66, label %64

64:                                               ; preds = %._crit_edge118
  %65 = call ptr @strcat(ptr noundef nonnull dereferenceable(1) %55, ptr noundef nonnull dereferenceable(1) %3) #18
  br label %66

66:                                               ; preds = %64, %._crit_edge118
  %67 = call i32 @PMIx_Argv_append_nosize(ptr noundef %4, ptr noundef nonnull %55) #18
  switch i32 %67, label %68 [
    i32 0, label %70
    i32 -2, label %.loopexit
  ]

68:                                               ; preds = %66
  %69 = call ptr @PMIx_Error_string(i32 noundef %67) #18
  call void (i32, ptr, ...) @pmix_output(i32 noundef 0, ptr noundef nonnull @.str.9, ptr noundef %69, ptr noundef nonnull @.str.10, i32 noundef 866) #18
  br label %.loopexit

.loopexit:                                        ; preds = %66, %68
  call void @free(ptr noundef nonnull %55) #18
  br label %72

70:                                               ; preds = %66
  %71 = add i64 %.3120, 1
  %.not89 = icmp ugt i64 %71, %.074.ph
  br i1 %.not89, label %._crit_edge122, label %59, !llvm.loop !85

._crit_edge122:                                   ; preds = %70, %.preheader
  call void @free(ptr noundef nonnull %55) #18
  br label %72

72:                                               ; preds = %._crit_edge122, %.loopexit, %57, %._crit_edge110, %._crit_edge
  %.0 = phi i32 [ -29, %57 ], [ %67, %.loopexit ], [ 0, %._crit_edge122 ], [ -46, %._crit_edge110 ], [ -46, %._crit_edge ]
  call void @llvm.lifetime.end.p0(i64 132, ptr nonnull %6) #18
  ret i32 %.0
}